target datalayout = "e-m:e-p270:32:32-p271:32:32-p272:64:64-i64:64-i128:128-f80:128-n8:16:32:64-S128"
target triple = "x86_64-unknown-linux-gnu"

%class.btGenericPoolAllocator = type { ptr, i64, i64, [16 x ptr], i64 }
%class.btGenericMemoryPool = type { ptr, ptr, ptr, i64, i64, i64, i64 }

; Function Attrs: mustprogress nounwind uwtable
define linkonce_odr dso_local noundef i64 @_ZN19btGenericMemoryPool17get_pool_capacityEv(ptr noundef nonnull align 8 dereferenceable(56) %this) #1 comdat align 2 {
entry:
  %this.addr = alloca ptr, align 8
  store ptr %this, ptr %this.addr, align 8
  %this1 = load ptr, ptr %this.addr, align 8
  %m_element_size = getelementptr inbounds %class.btGenericMemoryPool, ptr %this1, i32 0, i32 5
  %0 = load i64, ptr %m_element_size, align 8
  %m_max_element_count = getelementptr inbounds %class.btGenericMemoryPool, ptr %this1, i32 0, i32 6
  %1 = load i64, ptr %m_max_element_count, align 8
  %mul = mul i64 %0, %1
  ret i64 %mul
}

; Function Attrs: mustprogress uwtable
define dso_local noundef zeroext i1 @_ZN22btGenericPoolAllocator13failback_freeEPv(ptr noundef nonnull align 8 dereferenceable(160) %this, ptr noundef %pointer) #2 align 2 {
entry:
  %this.addr = alloca ptr, align 8
  %pointer.addr = alloca ptr, align 8
  store ptr %this, ptr %this.addr, align 8
  store ptr %pointer, ptr %pointer.addr, align 8
  %0 = load ptr, ptr %pointer.addr, align 8
  call void @_Z21btAlignedFreeInternalPv(ptr noundef %0)
  ret i1 true
}

; Function Attrs: mustprogress uwtable
define dso_local noundef zeroext i1 @_ZN19btGenericMemoryPool10freeMemoryEPv(ptr noundef nonnull align 8 dereferenceable(56) %this, ptr noundef %pointer) #2 align 2 {
entry:
  %retval = alloca i1, align 1
  %this.addr = alloca ptr, align 8
  %pointer.addr = alloca ptr, align 8
  %pointer_pos = alloca ptr, align 8
  %pool_pos = alloca ptr, align 8
  %offset = alloca i64, align 8
  store ptr %this, ptr %this.addr, align 8
  store ptr %pointer, ptr %pointer.addr, align 8
  %this1 = load ptr, ptr %this.addr, align 8
  %0 = load ptr, ptr %pointer.addr, align 8
  store ptr %0, ptr %pointer_pos, align 8
  %m_pool = getelementptr inbounds %class.btGenericMemoryPool, ptr %this1, i32 0, i32 0
  %1 = load ptr, ptr %m_pool, align 8
  store ptr %1, ptr %pool_pos, align 8
  %2 = load ptr, ptr %pointer_pos, align 8
  %3 = load ptr, ptr %pool_pos, align 8
  %cmp = icmp ult ptr %2, %3
  br i1 %cmp, label %if.then, label %if.end

if.then:                                          ; preds = %entry
  store i1 false, ptr %retval, align 1
  br label %return

if.end:                                           ; preds = %entry
  %4 = load ptr, ptr %pointer_pos, align 8
  %5 = load ptr, ptr %pool_pos, align 8
  %sub.ptr.lhs.cast = ptrtoint ptr %4 to i64
  %sub.ptr.rhs.cast = ptrtoint ptr %5 to i64
  %sub.ptr.sub = sub i64 %sub.ptr.lhs.cast, %sub.ptr.rhs.cast
  store i64 %sub.ptr.sub, ptr %offset, align 8
  %6 = load i64, ptr %offset, align 8
  %call = call noundef i64 @_ZN19btGenericMemoryPool17get_pool_capacityEv(ptr noundef nonnull align 8 dereferenceable(56) %this1)
  %cmp2 = icmp uge i64 %6, %call
  br i1 %cmp2, label %if.then3, label %if.end4

if.then3:                                         ; preds = %if.end
  store i1 false, ptr %retval, align 1
  br label %return

if.end4:                                          ; preds = %if.end
  %7 = load i64, ptr %offset, align 8
  %m_element_size = getelementptr inbounds %class.btGenericMemoryPool, ptr %this1, i32 0, i32 5
  %8 = load i64, ptr %m_element_size, align 8
  %div = udiv i64 %7, %8
  %m_free_nodes = getelementptr inbounds %class.btGenericMemoryPool, ptr %this1, i32 0, i32 1
  %9 = load ptr, ptr %m_free_nodes, align 8
  %m_free_nodes_count = getelementptr inbounds %class.btGenericMemoryPool, ptr %this1, i32 0, i32 4
  %10 = load i64, ptr %m_free_nodes_count, align 8
  %arrayidx = getelementptr inbounds i64, ptr %9, i64 %10
  store i64 %div, ptr %arrayidx, align 8
  %m_free_nodes_count5 = getelementptr inbounds %class.btGenericMemoryPool, ptr %this1, i32 0, i32 4
  %11 = load i64, ptr %m_free_nodes_count5, align 8
  %inc = add i64 %11, 1
  store i64 %inc, ptr %m_free_nodes_count5, align 8
  store i1 true, ptr %retval, align 1
  br label %return

return:                                           ; preds = %if.end4, %if.then3, %if.then
  %12 = load i1, ptr %retval, align 1
  ret i1 %12
}

; Function Attrs: mustprogress uwtable
define dso_local noundef zeroext i1 @_ZN22btGenericPoolAllocator10freeMemoryEPv(ptr noundef nonnull align 8 dereferenceable(160) %this, ptr noundef %pointer) #2 align 2 {
entry:
  %retval = alloca i1, align 1
  %this.addr = alloca ptr, align 8
  %pointer.addr = alloca ptr, align 8
  %result = alloca i8, align 1
  %i = alloca i64, align 8
  store ptr %this, ptr %this.addr, align 8
  store ptr %pointer, ptr %pointer.addr, align 8
  %this1 = load ptr, ptr %this.addr, align 8
  store i8 0, ptr %result, align 1
  store i64 0, ptr %i, align 8
  br label %while.cond

while.cond:                                       ; preds = %while.body, %entry
  %0 = load i64, ptr %i, align 8
  %m_pool_count = getelementptr inbounds %class.btGenericPoolAllocator, ptr %this1, i32 0, i32 4
  %1 = load i64, ptr %m_pool_count, align 8
  %cmp = icmp ult i64 %0, %1
  br i1 %cmp, label %land.rhs, label %land.end

land.rhs:                                         ; preds = %while.cond
  %2 = load i8, ptr %result, align 1
  %tobool = trunc i8 %2 to i1
  %conv = zext i1 %tobool to i32
  %cmp2 = icmp eq i32 %conv, 0
  br label %land.end

land.end:                                         ; preds = %land.rhs, %while.cond
  %3 = phi i1 [ false, %while.cond ], [ %cmp2, %land.rhs ]
  br i1 %3, label %while.body, label %while.end

while.body:                                       ; preds = %land.end
  %m_pools = getelementptr inbounds %class.btGenericPoolAllocator, ptr %this1, i32 0, i32 3
  %4 = load i64, ptr %i, align 8
  %arrayidx = getelementptr inbounds [16 x ptr], ptr %m_pools, i64 0, i64 %4
  %5 = load ptr, ptr %arrayidx, align 8
  %6 = load ptr, ptr %pointer.addr, align 8
  %call = call noundef zeroext i1 @_ZN19btGenericMemoryPool10freeMemoryEPv(ptr noundef nonnull align 8 dereferenceable(56) %5, ptr noundef %6)
  %frombool = zext i1 %call to i8
  store i8 %frombool, ptr %result, align 1
  %7 = load i64, ptr %i, align 8
  %inc = add i64 %7, 1
  store i64 %inc, ptr %i, align 8
  br label %while.cond, !llvm.loop !10

while.end:                                        ; preds = %land.end
  %8 = load i8, ptr %result, align 1
  %tobool3 = trunc i8 %8 to i1
  br i1 %tobool3, label %if.then, label %if.end

if.then:                                          ; preds = %while.end
  store i1 true, ptr %retval, align 1
  br label %return

if.end:                                           ; preds = %while.end
  %9 = load ptr, ptr %pointer.addr, align 8
  %call4 = call noundef zeroext i1 @_ZN22btGenericPoolAllocator13failback_freeEPv(ptr noundef nonnull align 8 dereferenceable(160) %this1, ptr noundef %9)
  store i1 %call4, ptr %retval, align 1
  br label %return

return:                                           ; preds = %if.end, %if.then
  %10 = load i1, ptr %retval, align 1
  ret i1 %10
}