; Function Attrs: mustprogress uwtable
define dso_local noundef zeroext i1 @_ZN22btGenericPoolAllocator10freeMemoryEPv(ptr nocapture noundef nonnull readonly align 8 dereferenceable(160) %this, ptr noundef %pointer) local_unnamed_addr #2 align 2 {
entry:
  %m_pool_count = getelementptr inbounds i8, ptr %this, i64 152
  %0 = load i64, ptr %m_pool_count, align 8
  %cmp5 = icmp eq i64 %0, 0
  br i1 %cmp5, label %if.end, label %while.body.lr.ph

while.body.lr.ph:                                 ; preds = %entry
  %m_pools = getelementptr inbounds i8, ptr %this, i64 24
  %sub.ptr.lhs.cast.i = ptrtoint ptr %pointer to i64
  br label %while.body

while.body:                                       ; preds = %while.body.lr.ph, %_ZN19btGenericMemoryPool10freeMemoryEPv.exit
  %i.06 = phi i64 [ 0, %while.body.lr.ph ], [ %inc, %_ZN19btGenericMemoryPool10freeMemoryEPv.exit ]
  %arrayidx = getelementptr inbounds [16 x ptr], ptr %m_pools, i64 0, i64 %i.06
  %1 = load ptr, ptr %arrayidx, align 8
  %2 = load ptr, ptr %1, align 8
  %cmp.i = icmp ugt ptr %2, %pointer
  br i1 %cmp.i, label %_ZN19btGenericMemoryPool10freeMemoryEPv.exit, label %if.end.i

if.end.i:                                         ; preds = %while.body
  %sub.ptr.rhs.cast.i = ptrtoint ptr %2 to i64
  %sub.ptr.sub.i = sub i64 %sub.ptr.lhs.cast.i, %sub.ptr.rhs.cast.i
  %m_element_size.i.i = getelementptr inbounds i8, ptr %1, i64 40
  %3 = load i64, ptr %m_element_size.i.i, align 8
  %m_max_element_count.i.i = getelementptr inbounds i8, ptr %1, i64 48
  %4 = load i64, ptr %m_max_element_count.i.i, align 8
  %mul.i.i = mul i64 %4, %3
  %cmp2.not.i = icmp ult i64 %sub.ptr.sub.i, %mul.i.i
  br i1 %cmp2.not.i, label %while.end.thread, label %_ZN19btGenericMemoryPool10freeMemoryEPv.exit

while.end.thread:                                 ; preds = %if.end.i
  %div.i = udiv i64 %sub.ptr.sub.i, %3
  %m_free_nodes.i = getelementptr inbounds i8, ptr %1, i64 8
  %5 = load ptr, ptr %m_free_nodes.i, align 8
  %m_free_nodes_count.i = getelementptr inbounds i8, ptr %1, i64 32
  %6 = load i64, ptr %m_free_nodes_count.i, align 8
  %arrayidx.i = getelementptr inbounds i64, ptr %5, i64 %6
  store i64 %div.i, ptr %arrayidx.i, align 8
  %7 = load i64, ptr %m_free_nodes_count.i, align 8
  %inc.i = add i64 %7, 1
  store i64 %inc.i, ptr %m_free_nodes_count.i, align 8
  br label %return

_ZN19btGenericMemoryPool10freeMemoryEPv.exit:     ; preds = %while.body, %if.end.i
  %inc = add nuw i64 %i.06, 1
  %cmp.not = icmp ult i64 %inc, %0
  br i1 %cmp.not, label %while.body, label %if.end, !llvm.loop !10

if.end:                                           ; preds = %_ZN19btGenericMemoryPool10freeMemoryEPv.exit, %entry
  tail call void @_Z21btAlignedFreeInternalPv(ptr noundef %pointer)
  br label %return

return:                                           ; preds = %while.end.thread, %if.end
  ret i1 true
}